target datalayout = "e-m:e-p270:32:32-p271:32:32-p272:64:64-i64:64-i128:128-f80:128-n8:16:32:64-S128"
target triple = "x86_64-pc-linux-gnu"

%struct._internal_exr_filehandle = type { i32 }

; Function Attrs: nounwind uwtable
define internal void @default_shutdown(ptr noundef %0, ptr noundef %1, i32 noundef %2) #0 {
  %4 = alloca ptr, align 8
  %5 = alloca ptr, align 8
  %6 = alloca i32, align 4
  %7 = alloca ptr, align 8
  store ptr %0, ptr %4, align 8, !tbaa !12
  store ptr %1, ptr %5, align 8, !tbaa !45
  store i32 %2, ptr %6, align 4, !tbaa !10
  call void @llvm.lifetime.start.p0(i64 8, ptr %7) #9
  %8 = load ptr, ptr %5, align 8, !tbaa !45
  store ptr %8, ptr %7, align 8, !tbaa !54
  %9 = load ptr, ptr %7, align 8, !tbaa !54
  %10 = icmp ne ptr %9, null
  br i1 %10, label %11, label %22

11:                                               ; preds = %3
  %12 = load ptr, ptr %7, align 8, !tbaa !54
  %13 = getelementptr inbounds nuw %struct._internal_exr_filehandle, ptr %12, i32 0, i32 0
  %14 = load i32, ptr %13, align 4, !tbaa !56
  %15 = icmp sge i32 %14, 0
  br i1 %15, label %16, label %21

16:                                               ; preds = %11
  %17 = load ptr, ptr %7, align 8, !tbaa !54
  %18 = getelementptr inbounds nuw %struct._internal_exr_filehandle, ptr %17, i32 0, i32 0
  %19 = load i32, ptr %18, align 4, !tbaa !56
  %20 = call i32 @close(i32 noundef %19)
  br label %21

21:                                               ; preds = %16, %11
  br label %22

22:                                               ; preds = %21, %3
  call void @llvm.lifetime.end.p0(i64 8, ptr %7) #9
  ret void
}