; Function Attrs: nounwind uwtable
define internal void @default_shutdown(ptr readnone captures(none) %0, ptr noundef readonly %1, i32 %2) #0 {
  %.not = icmp eq ptr %1, null
  br i1 %.not, label %9, label %4

4:                                                ; preds = %3
  %5 = load i32, ptr %1, align 4, !tbaa !45
  %6 = icmp sgt i32 %5, -1
  br i1 %6, label %7, label %9

7:                                                ; preds = %4
  %8 = tail call i32 @close(i32 noundef %5) #13
  br label %9

9:                                                ; preds = %4, %7, %3
  ret void
}